; Function Attrs: nounwind uwtable
define void @_ZThn8_N8proxygen21RequestHandlerAdaptor8sendBodyESt10unique_ptrIN5folly5IOBufESt14default_deleteIS3_EE(ptr nocapture noundef readonly %this, ptr nocapture noundef %b) unnamed_addr #8 align 2 personality ptr @__gxx_personality_v0 {
entry:
  %agg.tmp.i = alloca %"class.std::unique_ptr.49", align 8
  call void @llvm.lifetime.start.p0(i64 8, ptr nonnull %agg.tmp.i)
  %txn_.i = getelementptr inbounds i8, ptr %this, i64 16
  %0 = load ptr, ptr %txn_.i, align 8
  %1 = load i64, ptr %b, align 8
  store i64 %1, ptr %agg.tmp.i, align 8
  store ptr null, ptr %b, align 8
  %vtable.i = load ptr, ptr %0, align 8
  %vfn.i = getelementptr inbounds i8, ptr %vtable.i, i64 112
  %2 = load ptr, ptr %vfn.i, align 8
  invoke void %2(ptr noundef nonnull align 8 dereferenceable(912) %0, ptr noundef nonnull %agg.tmp.i)
          to label %invoke.cont.i unwind label %terminate.lpad.i

invoke.cont.i:                                    ; preds = %entry
  %3 = load ptr, ptr %agg.tmp.i, align 8
  %cmp.not.i.i = icmp eq ptr %3, null
  br i1 %cmp.not.i.i, label %_ZN8proxygen21RequestHandlerAdaptor8sendBodyESt10unique_ptrIN5folly5IOBufESt14default_deleteIS3_EE.exit, label %_ZNKSt14default_deleteIN5folly5IOBufEEclEPS1_.exit.i.i

_ZNKSt14default_deleteIN5folly5IOBufEEclEPS1_.exit.i.i: ; preds = %invoke.cont.i
  call void @_ZN5folly5IOBufD1Ev(ptr noundef nonnull align 8 dereferenceable(56) %3) #19
  call void @_ZN5folly5IOBufdlEPv(ptr noundef nonnull %3) #19
  br label %_ZN8proxygen21RequestHandlerAdaptor8sendBodyESt10unique_ptrIN5folly5IOBufESt14default_deleteIS3_EE.exit

terminate.lpad.i:                                 ; preds = %entry
  %4 = landingpad { ptr, i32 }
          catch ptr null
  %5 = extractvalue { ptr, i32 } %4, 0
  call void @__clang_call_terminate(ptr %5) #22
  unreachable

_ZN8proxygen21RequestHandlerAdaptor8sendBodyESt10unique_ptrIN5folly5IOBufESt14default_deleteIS3_EE.exit: ; preds = %invoke.cont.i, %_ZNKSt14default_deleteIN5folly5IOBufEEclEPS1_.exit.i.i
  call void @llvm.lifetime.end.p0(i64 8, ptr nonnull %agg.tmp.i)
  ret void
}